; Function Attrs: null_pointer_is_valid sspstrong uwtable
define internal i32 @dissect_ICBAAccoMgt_RemoveConnections_rqst(ptr noundef %0, i32 noundef %1, ptr noundef %2, ptr noundef %3, ptr noundef %4, ptr noundef %5) #0 {
  %7 = alloca i32, align 4
  %8 = alloca i32, align 4
  %9 = alloca i32, align 4
  call void @llvm.lifetime.start.p0(i64 4, ptr nonnull %7) #12
  call void @llvm.lifetime.start.p0(i64 4, ptr nonnull %8) #12
  call void @llvm.lifetime.start.p0(i64 4, ptr nonnull %9) #12
  %10 = tail call i32 @dissect_dcom_this(ptr noundef %0, i32 noundef %1, ptr noundef %2, ptr noundef %3, ptr noundef %4, ptr noundef %5)
  %11 = load i32, ptr @hf_cba_acco_count, align 4
  %12 = call i32 @dissect_ndr_uint32(ptr noundef %0, i32 noundef %10, ptr noundef %2, ptr noundef %3, ptr noundef %4, ptr noundef %5, i32 noundef %11, ptr noundef nonnull %7)
  %13 = call i32 @dissect_dcom_dcerpc_array_size(ptr noundef %0, i32 noundef %12, ptr noundef %2, ptr noundef %3, ptr noundef %4, ptr noundef %5, ptr noundef nonnull %8)
  %14 = load i32, ptr %8, align 4
  %15 = add i32 %14, -1
  store i32 %15, ptr %8, align 4
  %.not28 = icmp eq i32 %14, 0
  br i1 %.not28, label %._crit_edge, label %.lr.ph

.lr.ph:                                           ; preds = %6, %.lr.ph
  %.030 = phi i32 [ %18, %.lr.ph ], [ 1, %6 ]
  %.02729 = phi i32 [ %17, %.lr.ph ], [ %13, %6 ]
  %16 = load i32, ptr @hf_cba_acco_conn_cons_id, align 4
  %17 = call i32 @dissect_dcom_indexed_DWORD(ptr noundef %0, i32 noundef %.02729, ptr noundef %2, ptr noundef %3, ptr noundef %4, ptr noundef %5, i32 noundef %16, ptr noundef nonnull %9, i32 noundef %.030)
  %18 = add i32 %.030, 1
  %19 = load i32, ptr %8, align 4
  %20 = add i32 %19, -1
  store i32 %20, ptr %8, align 4
  %.not = icmp eq i32 %19, 0
  br i1 %.not, label %._crit_edge, label %.lr.ph, !llvm.loop !14

._crit_edge:                                      ; preds = %.lr.ph, %6
  %.027.lcssa = phi i32 [ %13, %6 ], [ %17, %.lr.ph ]
  %21 = getelementptr inbounds nuw i8, ptr %2, i64 8
  %22 = load ptr, ptr %21, align 8
  %23 = load i32, ptr %7, align 4
  call void (ptr, i32, ptr, ...) @col_append_fstr(ptr noundef %22, i32 noundef 25, ptr noundef nonnull @.str.260, i32 noundef %23)
  call void @llvm.lifetime.end.p0(i64 4, ptr nonnull %9) #12
  call void @llvm.lifetime.end.p0(i64 4, ptr nonnull %8) #12
  call void @llvm.lifetime.end.p0(i64 4, ptr nonnull %7) #12
  ret i32 %.027.lcssa
}